; Function Attrs: mustprogress nounwind uwtable
define dso_local noundef nonnull align 8 dereferenceable(56) ptr @_ZN4node6crypto10HashConfigaSEOS1_(ptr noundef nonnull returned align 8 dereferenceable(56) %this, ptr noundef nonnull align 8 dereferenceable(56) %other) local_unnamed_addr #3 align 2 {
entry:
  %cmp = icmp eq ptr %other, %this
  br i1 %cmp, label %return, label %if.end

if.end:                                           ; preds = %entry
  %in.i = getelementptr inbounds i8, ptr %this, i64 16
  tail call void @_ZN4node6crypto10ByteSourceD1Ev(ptr noundef nonnull align 8 dereferenceable(24) %in.i) #21
  store ptr getelementptr inbounds ({ [10 x ptr] }, ptr @_ZTVN4node6crypto10HashConfigE, i64 0, i32 0, i64 2), ptr %this, align 8
  %mode.i = getelementptr inbounds i8, ptr %this, i64 8
  %mode2.i = getelementptr inbounds i8, ptr %other, i64 8
  %0 = load i32, ptr %mode2.i, align 8
  store i32 %0, ptr %mode.i, align 8
  %in3.i = getelementptr inbounds i8, ptr %other, i64 16
  tail call void @_ZN4node6crypto10ByteSourceC1EOS1_(ptr noundef nonnull align 8 dereferenceable(24) %in.i, ptr noundef nonnull align 8 dereferenceable(24) %in3.i) #21
  %digest.i = getelementptr inbounds i8, ptr %this, i64 40
  %digest4.i = getelementptr inbounds i8, ptr %other, i64 40
  %1 = load ptr, ptr %digest4.i, align 8
  store ptr %1, ptr %digest.i, align 8
  %length.i = getelementptr inbounds i8, ptr %this, i64 48
  %length5.i = getelementptr inbounds i8, ptr %other, i64 48
  %2 = load i32, ptr %length5.i, align 8
  store i32 %2, ptr %length.i, align 8
  br label %return

return:                                           ; preds = %entry, %if.end
  ret ptr %this
}